target datalayout = "e-m:e-p270:32:32-p271:32:32-p272:64:64-i64:64-i128:128-f80:128-n8:16:32:64-S128"
target triple = "x86_64-pc-linux-gnu"

@node_record_count = external global i32, align 4

; Function Attrs: nounwind uwtable
define dso_local void @free_core_array(ptr noundef %0) #0 {
  %2 = alloca ptr, align 8
  %3 = alloca ptr, align 8
  %4 = alloca i32, align 4
  store ptr %0, ptr %2, align 8
  call void @llvm.lifetime.start.p0(i64 8, ptr %3) #3
  %5 = load ptr, ptr %2, align 8
  %6 = load ptr, ptr %5, align 8
  store ptr %6, ptr %3, align 8
  call void @llvm.lifetime.start.p0(i64 4, ptr %4) #3
  %7 = load ptr, ptr %3, align 8
  %8 = icmp ne ptr %7, null
  br i1 %8, label %9, label %39

9:                                                ; preds = %1
  store i32 0, ptr %4, align 4
  br label %10

10:                                               ; preds = %34, %9
  %11 = load i32, ptr %4, align 4
  %12 = load i32, ptr @node_record_count, align 4
  %13 = icmp slt i32 %11, %12
  br i1 %13, label %14, label %37

14:                                               ; preds = %10
  br label %15

15:                                               ; preds = %14
  %16 = load ptr, ptr %3, align 8
  %17 = load i32, ptr %4, align 4
  %18 = sext i32 %17 to i64
  %19 = getelementptr inbounds ptr, ptr %16, i64 %18
  %20 = load ptr, ptr %19, align 8
  %21 = icmp ne ptr %20, null
  br i1 %21, label %22, label %27

22:                                               ; preds = %15
  %23 = load ptr, ptr %3, align 8
  %24 = load i32, ptr %4, align 4
  %25 = sext i32 %24 to i64
  %26 = getelementptr inbounds ptr, ptr %23, i64 %25
  call void @slurm_bit_free(ptr noundef %26)
  br label %27

27:                                               ; preds = %22, %15
  %28 = load ptr, ptr %3, align 8
  %29 = load i32, ptr %4, align 4
  %30 = sext i32 %29 to i64
  %31 = getelementptr inbounds ptr, ptr %28, i64 %30
  store ptr null, ptr %31, align 8
  br label %32

32:                                               ; preds = %27
  br label %33

33:                                               ; preds = %32
  br label %34

34:                                               ; preds = %33
  %35 = load i32, ptr %4, align 4
  %36 = add nsw i32 %35, 1
  store i32 %36, ptr %4, align 4
  br label %10, !llvm.loop !17

37:                                               ; preds = %10
  call void @slurm_xfree(ptr noundef %3)
  %38 = load ptr, ptr %2, align 8
  store ptr null, ptr %38, align 8
  br label %39

39:                                               ; preds = %37, %1
  call void @llvm.lifetime.end.p0(i64 4, ptr %4) #3
  call void @llvm.lifetime.end.p0(i64 8, ptr %3) #3
  ret void
}