; Function Attrs: nounwind uwtable
define dso_local void @free_core_array(ptr noundef captures(none) %0) local_unnamed_addr #0 {
  %2 = alloca ptr, align 8
  call void @llvm.lifetime.start.p0(i64 8, ptr nonnull %2) #3
  %3 = load ptr, ptr %0, align 8
  store ptr %3, ptr %2, align 8
  %.not = icmp eq ptr %3, null
  br i1 %.not, label %13, label %.preheader

.preheader:                                       ; preds = %1
  %4 = load i32, ptr @node_record_count, align 4
  %5 = icmp sgt i32 %4, 0
  br i1 %5, label %.lr.ph, label %._crit_edge

.lr.ph:                                           ; preds = %.preheader, %9
  %indvars.iv = phi i64 [ %indvars.iv.next, %9 ], [ 0, %.preheader ]
  %6 = getelementptr inbounds nuw ptr, ptr %3, i64 %indvars.iv
  %7 = load ptr, ptr %6, align 8
  %.not6 = icmp eq ptr %7, null
  br i1 %.not6, label %9, label %8

8:                                                ; preds = %.lr.ph
  tail call void @slurm_bit_free(ptr noundef nonnull %6) #3
  br label %9

9:                                                ; preds = %8, %.lr.ph
  store ptr null, ptr %6, align 8
  %indvars.iv.next = add nuw nsw i64 %indvars.iv, 1
  %10 = load i32, ptr @node_record_count, align 4
  %11 = sext i32 %10 to i64
  %12 = icmp slt i64 %indvars.iv.next, %11
  br i1 %12, label %.lr.ph, label %._crit_edge, !llvm.loop !17

._crit_edge:                                      ; preds = %9, %.preheader
  call void @slurm_xfree(ptr noundef nonnull %2) #3
  store ptr null, ptr %0, align 8
  br label %13

13:                                               ; preds = %._crit_edge, %1
  call void @llvm.lifetime.end.p0(i64 8, ptr nonnull %2) #3
  ret void
}